; Function Attrs: mustprogress uwtable
define void @_ZN5folly10SSLContext16setAllowNoDheKexEb(ptr noundef nonnull readonly align 8 captures(none) dereferenceable(304) %0, i1 noundef zeroext %1) local_unnamed_addr #2 align 2 {
  %3 = getelementptr inbounds nuw i8, ptr %0, i64 8
  %4 = load ptr, ptr %3, align 8, !tbaa !10
  br i1 %1, label %5, label %7

5:                                                ; preds = %2
  %6 = tail call i64 @SSL_CTX_set_options(ptr noundef %4, i64 noundef 1024)
  br label %9

7:                                                ; preds = %2
  %8 = tail call i64 @SSL_CTX_clear_options(ptr noundef %4, i64 noundef 1024)
  br label %9

9:                                                ; preds = %7, %5
  ret void
}